target datalayout = "e-m:e-p270:32:32-p271:32:32-p272:64:64-i64:64-i128:128-f80:128-n8:16:32:64-S128"
target triple = "x86_64-pc-linux-gnu"

@.str.49 = private unnamed_addr constant [16 x i8] c"No shard ID yet\00", align 1

; Function Attrs: nounwind uwtable
define dso_local void @clusterCommandMyShardId(ptr noundef %0) #0 {
  %2 = alloca ptr, align 8
  %3 = alloca ptr, align 8
  store ptr %0, ptr %2, align 8, !tbaa !53
  call void @llvm.lifetime.start.p0(i64 8, ptr %3) #14
  %4 = call ptr @getMyClusterNode()
  %5 = call ptr @clusterNodeGetShardId(ptr noundef %4)
  store ptr %5, ptr %3, align 8, !tbaa !5
  %6 = load ptr, ptr %3, align 8, !tbaa !5
  %7 = icmp ne ptr %6, null
  br i1 %7, label %8, label %11

8:                                                ; preds = %1
  %9 = load ptr, ptr %2, align 8, !tbaa !53
  %10 = load ptr, ptr %3, align 8, !tbaa !5
  call void @addReplyBulkCBuffer(ptr noundef %9, ptr noundef %10, i64 noundef 40)
  br label %13

11:                                               ; preds = %1
  %12 = load ptr, ptr %2, align 8, !tbaa !53
  call void @addReplyError(ptr noundef %12, ptr noundef @.str.49)
  br label %13

13:                                               ; preds = %11, %8
  call void @llvm.lifetime.end.p0(i64 8, ptr %3) #14
  ret void
}